target datalayout = "e-m:e-p270:32:32-p271:32:32-p272:64:64-i64:64-i128:128-f80:128-n8:16:32:64-S128"
target triple = "x86_64-pc-linux-gnu"

@.str.18 = private unnamed_addr constant [6 x i8] c"%s%s\0A\00", align 1
@.str.19 = private unnamed_addr constant [4 x i8] c"%s\0A\00", align 1

; Function Attrs: nounwind uwtable
define internal void @_update_crontab_with_disabled_lines(ptr noundef %0, ptr noundef %1, ptr noundef %2) #0 {
  %4 = alloca ptr, align 8
  %5 = alloca ptr, align 8
  %6 = alloca ptr, align 8
  %7 = alloca ptr, align 8
  %8 = alloca i32, align 4
  %9 = alloca ptr, align 8
  %10 = alloca ptr, align 8
  %11 = alloca i32, align 4
  %12 = alloca i32, align 4
  store ptr %0, ptr %4, align 8
  store ptr %1, ptr %5, align 8
  store ptr %2, ptr %6, align 8
  call void @llvm.lifetime.start.p0(i64 8, ptr %7) #11
  call void @llvm.lifetime.start.p0(i64 4, ptr %8) #11
  store i32 0, ptr %8, align 4
  call void @llvm.lifetime.start.p0(i64 8, ptr %9) #11
  call void @llvm.lifetime.start.p0(i64 8, ptr %10) #11
  store ptr null, ptr %10, align 8
  %13 = load ptr, ptr %4, align 8
  %14 = load ptr, ptr %13, align 8
  %15 = icmp ne ptr %14, null
  br i1 %15, label %16, label %25

16:                                               ; preds = %3
  %17 = load ptr, ptr %5, align 8
  %18 = icmp ne ptr %17, null
  br i1 %18, label %19, label %25

19:                                               ; preds = %16
  %20 = load ptr, ptr %5, align 8
  %21 = getelementptr inbounds i8, ptr %20, i64 0
  %22 = load i8, ptr %21, align 1
  %23 = sext i8 %22 to i32
  %24 = icmp eq i32 %23, 0
  br i1 %24, label %25, label %26

25:                                               ; preds = %19, %16, %3
  store i32 1, ptr %11, align 4
  br label %78

26:                                               ; preds = %19
  %27 = load ptr, ptr %4, align 8
  %28 = load ptr, ptr %27, align 8
  %29 = call ptr @convert_file_to_line_array(ptr noundef %28, ptr noundef %8)
  store ptr %29, ptr %7, align 8
  %30 = load i32, ptr %8, align 4
  %31 = sext i32 %30 to i64
  %32 = call ptr @bit_alloc(i64 noundef %31)
  store ptr %32, ptr %9, align 8
  %33 = load ptr, ptr %9, align 8
  %34 = load ptr, ptr %5, align 8
  %35 = call i32 @bit_unfmt(ptr noundef %33, ptr noundef %34)
  call void @llvm.lifetime.start.p0(i64 4, ptr %12) #11
  store i32 1, ptr %12, align 4
  br label %36

36:                                               ; preds = %64, %26
  %37 = load ptr, ptr %7, align 8
  %38 = load i32, ptr %12, align 4
  %39 = sext i32 %38 to i64
  %40 = getelementptr inbounds ptr, ptr %37, i64 %39
  %41 = load ptr, ptr %40, align 8
  %42 = icmp ne ptr %41, null
  br i1 %42, label %44, label %43

43:                                               ; preds = %36
  store i32 2, ptr %11, align 4
  call void @llvm.lifetime.end.p0(i64 4, ptr %12) #11
  br label %67

44:                                               ; preds = %36
  %45 = load ptr, ptr %9, align 8
  %46 = load i32, ptr %12, align 4
  %47 = sext i32 %46 to i64
  %48 = call i32 @slurm_bit_test(ptr noundef %45, i64 noundef %47)
  %49 = icmp ne i32 %48, 0
  br i1 %49, label %50, label %57

50:                                               ; preds = %44
  %51 = load ptr, ptr %6, align 8
  %52 = load ptr, ptr %7, align 8
  %53 = load i32, ptr %12, align 4
  %54 = sext i32 %53 to i64
  %55 = getelementptr inbounds ptr, ptr %52, i64 %54
  %56 = load ptr, ptr %55, align 8
  call void (ptr, ptr, ...) @_xstrfmtcat(ptr noundef %10, ptr noundef @.str.18, ptr noundef %51, ptr noundef %56)
  br label %63

57:                                               ; preds = %44
  %58 = load ptr, ptr %7, align 8
  %59 = load i32, ptr %12, align 4
  %60 = sext i32 %59 to i64
  %61 = getelementptr inbounds ptr, ptr %58, i64 %60
  %62 = load ptr, ptr %61, align 8
  call void (ptr, ptr, ...) @_xstrfmtcat(ptr noundef %10, ptr noundef @.str.19, ptr noundef %62)
  br label %63

63:                                               ; preds = %57, %50
  br label %64

64:                                               ; preds = %63
  %65 = load i32, ptr %12, align 4
  %66 = add nsw i32 %65, 1
  store i32 %66, ptr %12, align 4
  br label %36, !llvm.loop !13

67:                                               ; preds = %43
  %68 = load ptr, ptr %4, align 8
  call void @slurm_xfree(ptr noundef %68)
  %69 = load ptr, ptr %10, align 8
  %70 = load ptr, ptr %4, align 8
  store ptr %69, ptr %70, align 8
  br label %71

71:                                               ; preds = %67
  %72 = load ptr, ptr %9, align 8
  %73 = icmp ne ptr %72, null
  br i1 %73, label %74, label %75

74:                                               ; preds = %71
  call void @slurm_bit_free(ptr noundef %9)
  br label %75

75:                                               ; preds = %74, %71
  store ptr null, ptr %9, align 8
  br label %76

76:                                               ; preds = %75
  br label %77

77:                                               ; preds = %76
  call void @slurm_xfree(ptr noundef %7)
  store i32 0, ptr %11, align 4
  br label %78

78:                                               ; preds = %77, %25
  call void @llvm.lifetime.end.p0(i64 8, ptr %10) #11
  call void @llvm.lifetime.end.p0(i64 8, ptr %9) #11
  call void @llvm.lifetime.end.p0(i64 4, ptr %8) #11
  call void @llvm.lifetime.end.p0(i64 8, ptr %7) #11
  %79 = load i32, ptr %11, align 4
  switch i32 %79, label %81 [
    i32 0, label %80
    i32 1, label %80
  ]

80:                                               ; preds = %78, %78
  ret void

81:                                               ; preds = %78
  unreachable
}