; Function Attrs: nounwind uwtable
define internal fastcc void @_update_crontab_with_disabled_lines(ptr noundef nonnull %0, ptr noundef %1, ptr noundef %2) unnamed_addr #1 {
  %4 = alloca ptr, align 8
  %5 = alloca i32, align 4
  %6 = alloca ptr, align 8
  %7 = alloca ptr, align 8
  call void @llvm.lifetime.start.p0(i64 8, ptr nonnull %4) #16
  call void @llvm.lifetime.start.p0(i64 4, ptr nonnull %5) #16
  store i32 0, ptr %5, align 4
  call void @llvm.lifetime.start.p0(i64 8, ptr nonnull %6) #16
  call void @llvm.lifetime.start.p0(i64 8, ptr nonnull %7) #16
  store ptr null, ptr %7, align 8
  %8 = load ptr, ptr %0, align 8
  %9 = icmp ne ptr %8, null
  %10 = icmp ne ptr %1, null
  %or.cond = and i1 %10, %9
  br i1 %or.cond, label %11, label %33

11:                                               ; preds = %3
  %12 = load i8, ptr %1, align 1
  %13 = icmp eq i8 %12, 0
  br i1 %13, label %33, label %14

14:                                               ; preds = %11
  %15 = call ptr @convert_file_to_line_array(ptr noundef nonnull %8, ptr noundef nonnull %5) #16
  store ptr %15, ptr %4, align 8
  %16 = load i32, ptr %5, align 4
  %17 = sext i32 %16 to i64
  %18 = call ptr @bit_alloc(i64 noundef %17) #16
  store ptr %18, ptr %6, align 8
  %19 = call i32 @bit_unfmt(ptr noundef %18, ptr noundef nonnull %1) #16
  %20 = getelementptr inbounds nuw i8, ptr %15, i64 8
  %21 = load ptr, ptr %20, align 8
  %.not17 = icmp eq ptr %21, null
  br i1 %.not17, label %._crit_edge, label %.lr.ph

._crit_edge:                                      ; preds = %28, %14
  call void @slurm_xfree(ptr noundef nonnull %0) #16
  %22 = load ptr, ptr %7, align 8
  store ptr %22, ptr %0, align 8
  %.not15 = icmp eq ptr %18, null
  br i1 %.not15, label %32, label %31

.lr.ph:                                           ; preds = %14, %28
  %indvars.iv = phi i64 [ %indvars.iv.next, %28 ], [ 1, %14 ]
  %23 = call i32 @slurm_bit_test(ptr noundef %18, i64 noundef %indvars.iv) #16
  %.not16 = icmp eq i32 %23, 0
  %24 = getelementptr inbounds nuw ptr, ptr %15, i64 %indvars.iv
  %25 = load ptr, ptr %24, align 8
  br i1 %.not16, label %27, label %26

26:                                               ; preds = %.lr.ph
  call void (ptr, ptr, ...) @_xstrfmtcat(ptr noundef nonnull %7, ptr noundef nonnull @.str.18, ptr noundef %2, ptr noundef %25) #16
  br label %28

27:                                               ; preds = %.lr.ph
  call void (ptr, ptr, ...) @_xstrfmtcat(ptr noundef nonnull %7, ptr noundef nonnull @.str.19, ptr noundef %25) #16
  br label %28

28:                                               ; preds = %26, %27
  %indvars.iv.next = add nuw nsw i64 %indvars.iv, 1
  %29 = getelementptr inbounds nuw ptr, ptr %15, i64 %indvars.iv.next
  %30 = load ptr, ptr %29, align 8
  %.not = icmp eq ptr %30, null
  br i1 %.not, label %._crit_edge, label %.lr.ph, !llvm.loop !16

31:                                               ; preds = %._crit_edge
  call void @slurm_bit_free(ptr noundef nonnull %6) #16
  br label %32

32:                                               ; preds = %31, %._crit_edge
  store ptr null, ptr %6, align 8
  call void @slurm_xfree(ptr noundef nonnull %4) #16
  br label %33

33:                                               ; preds = %3, %11, %32
  call void @llvm.lifetime.end.p0(i64 8, ptr nonnull %7) #16
  call void @llvm.lifetime.end.p0(i64 8, ptr nonnull %6) #16
  call void @llvm.lifetime.end.p0(i64 4, ptr nonnull %5) #16
  call void @llvm.lifetime.end.p0(i64 8, ptr nonnull %4) #16
  ret void
}